target datalayout = "e-m:e-p270:32:32-p271:32:32-p272:64:64-i64:64-i128:128-f80:128-n8:16:32:64-S128"
target triple = "x86_64-pc-linux-gnu"

%struct.List = type { i32, i32, i32, ptr, [0 x %union.ListCell] }
%union.ListCell = type { ptr }
%struct.String = type { i32, ptr }

@MyDatabaseId = external global i32, align 4
@.str.1 = private unnamed_addr constant [12 x i8] c"namespace.c\00", align 1
@.str.18 = private unnamed_addr constant [50 x i8] c"cross-database references are not implemented: %s\00", align 1
@__func__.DeconstructQualifiedName = private unnamed_addr constant [25 x i8] c"DeconstructQualifiedName\00", align 1
@.str.19 = private unnamed_addr constant [52 x i8] c"improper qualified name (too many dotted names): %s\00", align 1

; Function Attrs: inlinehint nounwind uwtable
define internal ptr @list_nth_cell(ptr noundef %0, i32 noundef %1) #7 {
  %3 = alloca ptr, align 8
  %4 = alloca i32, align 4
  store ptr %0, ptr %3, align 8
  store i32 %1, ptr %4, align 4
  %5 = load ptr, ptr %3, align 8
  %6 = getelementptr inbounds nuw %struct.List, ptr %5, i32 0, i32 3
  %7 = load ptr, ptr %6, align 8
  %8 = load i32, ptr %4, align 4
  %9 = sext i32 %8 to i64
  %10 = getelementptr inbounds %union.ListCell, ptr %7, i64 %9
  ret ptr %10
}

; Function Attrs: inlinehint nounwind uwtable
define internal i32 @list_length(ptr noundef %0) #7 {
  %2 = alloca ptr, align 8
  store ptr %0, ptr %2, align 8
  %3 = load ptr, ptr %2, align 8
  %4 = icmp ne ptr %3, null
  br i1 %4, label %5, label %9

5:                                                ; preds = %1
  %6 = load ptr, ptr %2, align 8
  %7 = getelementptr inbounds nuw %struct.List, ptr %6, i32 0, i32 1
  %8 = load i32, ptr %7, align 4
  br label %10

9:                                                ; preds = %1
  br label %10

10:                                               ; preds = %9, %5
  %11 = phi i32 [ %8, %5 ], [ 0, %9 ]
  ret i32 %11
}

; Function Attrs: nounwind uwtable
define dso_local void @DeconstructQualifiedName(ptr noundef %0, ptr noundef %1, ptr noundef %2) #0 {
  %4 = alloca ptr, align 8
  %5 = alloca ptr, align 8
  %6 = alloca ptr, align 8
  %7 = alloca ptr, align 8
  %8 = alloca ptr, align 8
  %9 = alloca ptr, align 8
  store ptr %0, ptr %4, align 8
  store ptr %1, ptr %5, align 8
  store ptr %2, ptr %6, align 8
  call void @llvm.lifetime.start.p0(i64 8, ptr %7) #14
  call void @llvm.lifetime.start.p0(i64 8, ptr %8) #14
  store ptr null, ptr %8, align 8
  call void @llvm.lifetime.start.p0(i64 8, ptr %9) #14
  store ptr null, ptr %9, align 8
  %10 = load ptr, ptr %4, align 8
  %11 = call i32 @list_length(ptr noundef %10)
  switch i32 %11, label %65 [
    i32 1, label %12
    i32 2, label %18
    i32 3, label %29
  ]

12:                                               ; preds = %3
  %13 = load ptr, ptr %4, align 8
  %14 = call ptr @list_nth_cell(ptr noundef %13, i32 noundef 0)
  %15 = load ptr, ptr %14, align 8
  %16 = getelementptr inbounds nuw %struct.String, ptr %15, i32 0, i32 1
  %17 = load ptr, ptr %16, align 8
  store ptr %17, ptr %9, align 8
  br label %79

18:                                               ; preds = %3
  %19 = load ptr, ptr %4, align 8
  %20 = call ptr @list_nth_cell(ptr noundef %19, i32 noundef 0)
  %21 = load ptr, ptr %20, align 8
  %22 = getelementptr inbounds nuw %struct.String, ptr %21, i32 0, i32 1
  %23 = load ptr, ptr %22, align 8
  store ptr %23, ptr %8, align 8
  %24 = load ptr, ptr %4, align 8
  %25 = call ptr @list_nth_cell(ptr noundef %24, i32 noundef 1)
  %26 = load ptr, ptr %25, align 8
  %27 = getelementptr inbounds nuw %struct.String, ptr %26, i32 0, i32 1
  %28 = load ptr, ptr %27, align 8
  store ptr %28, ptr %9, align 8
  br label %79

29:                                               ; preds = %3
  %30 = load ptr, ptr %4, align 8
  %31 = call ptr @list_nth_cell(ptr noundef %30, i32 noundef 0)
  %32 = load ptr, ptr %31, align 8
  %33 = getelementptr inbounds nuw %struct.String, ptr %32, i32 0, i32 1
  %34 = load ptr, ptr %33, align 8
  store ptr %34, ptr %7, align 8
  %35 = load ptr, ptr %4, align 8
  %36 = call ptr @list_nth_cell(ptr noundef %35, i32 noundef 1)
  %37 = load ptr, ptr %36, align 8
  %38 = getelementptr inbounds nuw %struct.String, ptr %37, i32 0, i32 1
  %39 = load ptr, ptr %38, align 8
  store ptr %39, ptr %8, align 8
  %40 = load ptr, ptr %4, align 8
  %41 = call ptr @list_nth_cell(ptr noundef %40, i32 noundef 2)
  %42 = load ptr, ptr %41, align 8
  %43 = getelementptr inbounds nuw %struct.String, ptr %42, i32 0, i32 1
  %44 = load ptr, ptr %43, align 8
  store ptr %44, ptr %9, align 8
  %45 = load ptr, ptr %7, align 8
  %46 = load i32, ptr @MyDatabaseId, align 4
  %47 = call ptr @get_database_name(i32 noundef %46)
  %48 = call i32 @strcmp(ptr noundef %45, ptr noundef %47) #15
  %49 = icmp ne i32 %48, 0
  br i1 %49, label %50, label %64

50:                                               ; preds = %29
  br label %51

51:                                               ; preds = %50
  br i1 true, label %52, label %54

52:                                               ; preds = %51
  %53 = call zeroext i1 @errstart_cold(i32 noundef 21, ptr noundef null) #16
  br i1 %53, label %56, label %61

54:                                               ; preds = %51
  %55 = call zeroext i1 @errstart(i32 noundef 21, ptr noundef null)
  br i1 %55, label %56, label %61

56:                                               ; preds = %54, %52
  %57 = call i32 @errcode(i32 noundef 1088)
  %58 = load ptr, ptr %4, align 8
  %59 = call ptr @NameListToString(ptr noundef %58)
  %60 = call i32 (ptr, ...) @errmsg(ptr noundef @.str.18, ptr noundef %59)
  call void @errfinish(ptr noundef @.str.1, i32 noundef 3330, ptr noundef @__func__.DeconstructQualifiedName)
  br label %61

61:                                               ; preds = %56, %54, %52
  unreachable

62:                                               ; No predecessors!
  br label %63

63:                                               ; preds = %62
  br label %64

64:                                               ; preds = %63, %29
  br label %79

65:                                               ; preds = %3
  br label %66

66:                                               ; preds = %65
  br i1 true, label %67, label %69

67:                                               ; preds = %66
  %68 = call zeroext i1 @errstart_cold(i32 noundef 21, ptr noundef null) #16
  br i1 %68, label %71, label %76

69:                                               ; preds = %66
  %70 = call zeroext i1 @errstart(i32 noundef 21, ptr noundef null)
  br i1 %70, label %71, label %76

71:                                               ; preds = %69, %67
  %72 = call i32 @errcode(i32 noundef 16801924)
  %73 = load ptr, ptr %4, align 8
  %74 = call ptr @NameListToString(ptr noundef %73)
  %75 = call i32 (ptr, ...) @errmsg(ptr noundef @.str.19, ptr noundef %74)
  call void @errfinish(ptr noundef @.str.1, i32 noundef 3336, ptr noundef @__func__.DeconstructQualifiedName)
  br label %76

76:                                               ; preds = %71, %69, %67
  unreachable

77:                                               ; No predecessors!
  br label %78

78:                                               ; preds = %77
  br label %79

79:                                               ; preds = %78, %64, %18, %12
  %80 = load ptr, ptr %8, align 8
  %81 = load ptr, ptr %5, align 8
  store ptr %80, ptr %81, align 8
  %82 = load ptr, ptr %9, align 8
  %83 = load ptr, ptr %6, align 8
  store ptr %82, ptr %83, align 8
  call void @llvm.lifetime.end.p0(i64 8, ptr %9) #14
  call void @llvm.lifetime.end.p0(i64 8, ptr %8) #14
  call void @llvm.lifetime.end.p0(i64 8, ptr %7) #14
  ret void
}