; Function Attrs: nounwind uwtable
define dso_local void @DeconstructQualifiedName(ptr noundef captures(address_is_null) %0, ptr noundef writeonly captures(none) %1, ptr noundef writeonly captures(none) %2) local_unnamed_addr #0 {
  %.not.i = icmp eq ptr %0, null
  br i1 %.not.i, label %list_length.exit.thread, label %list_length.exit

list_length.exit:                                 ; preds = %3
  %4 = getelementptr inbounds nuw i8, ptr %0, i64 4
  %5 = load i32, ptr %4, align 4
  switch i32 %5, label %list_length.exit.thread [
    i32 1, label %6
    i32 2, label %8
    i32 3, label %14
  ]

6:                                                ; preds = %list_length.exit
  %7 = getelementptr i8, ptr %0, i64 16
  %.val = load ptr, ptr %7, align 8
  br label %.sink.split

8:                                                ; preds = %list_length.exit
  %9 = getelementptr i8, ptr %0, i64 16
  %.val15 = load ptr, ptr %9, align 8
  %10 = load ptr, ptr %.val15, align 8
  %11 = getelementptr inbounds nuw i8, ptr %10, i64 8
  %12 = load ptr, ptr %11, align 8
  %13 = getelementptr inbounds nuw i8, ptr %.val15, i64 8
  br label %.sink.split

14:                                               ; preds = %list_length.exit
  %15 = getelementptr i8, ptr %0, i64 16
  %.val17 = load ptr, ptr %15, align 8
  %16 = load ptr, ptr %.val17, align 8
  %17 = getelementptr inbounds nuw i8, ptr %16, i64 8
  %18 = load ptr, ptr %17, align 8
  %19 = getelementptr inbounds nuw i8, ptr %.val17, i64 8
  %20 = load ptr, ptr %19, align 8
  %21 = getelementptr inbounds nuw i8, ptr %20, i64 8
  %22 = load ptr, ptr %21, align 8
  %23 = getelementptr inbounds nuw i8, ptr %.val17, i64 16
  %24 = load ptr, ptr %23, align 8
  %25 = getelementptr inbounds nuw i8, ptr %24, i64 8
  %26 = load ptr, ptr %25, align 8
  %27 = load i32, ptr @MyDatabaseId, align 4
  %28 = tail call ptr @get_database_name(i32 noundef %27) #19
  %29 = tail call i32 @strcmp(ptr noundef nonnull dereferenceable(1) %18, ptr noundef nonnull dereferenceable(1) %28) #20
  %.not = icmp eq i32 %29, 0
  br i1 %.not, label %41, label %30

30:                                               ; preds = %14
  %31 = tail call zeroext i1 @errstart_cold(i32 noundef 21, ptr noundef null) #21
  tail call void @llvm.assume(i1 %31)
  %32 = tail call i32 @errcode(i32 noundef 1088) #19
  %33 = tail call ptr @NameListToString(ptr noundef nonnull %0)
  %34 = tail call i32 (ptr, ...) @errmsg(ptr noundef nonnull @.str.18, ptr noundef %33) #19
  tail call void @errfinish(ptr noundef nonnull @.str.1, i32 noundef 3330, ptr noundef nonnull @__func__.DeconstructQualifiedName) #19
  unreachable

list_length.exit.thread:                          ; preds = %3, %list_length.exit
  %35 = tail call zeroext i1 @errstart_cold(i32 noundef 21, ptr noundef null) #21
  tail call void @llvm.assume(i1 %35)
  %36 = tail call i32 @errcode(i32 noundef 16801924) #19
  %37 = tail call ptr @NameListToString(ptr noundef %0)
  %38 = tail call i32 (ptr, ...) @errmsg(ptr noundef nonnull @.str.19, ptr noundef %37) #19
  tail call void @errfinish(ptr noundef nonnull @.str.1, i32 noundef 3336, ptr noundef nonnull @__func__.DeconstructQualifiedName) #19
  unreachable

.sink.split:                                      ; preds = %6, %8
  %.sink20.in = phi ptr [ %13, %8 ], [ %.val, %6 ]
  %.014.ph = phi ptr [ %12, %8 ], [ null, %6 ]
  %.sink20 = load ptr, ptr %.sink20.in, align 8
  %39 = getelementptr inbounds nuw i8, ptr %.sink20, i64 8
  %40 = load ptr, ptr %39, align 8
  br label %41

41:                                               ; preds = %.sink.split, %14
  %.014 = phi ptr [ %22, %14 ], [ %.014.ph, %.sink.split ]
  %.0 = phi ptr [ %26, %14 ], [ %40, %.sink.split ]
  store ptr %.014, ptr %1, align 8
  store ptr %.0, ptr %2, align 8
  ret void
}